target datalayout = "e-m:e-p270:32:32-p271:32:32-p272:64:64-i64:64-i128:128-f80:128-n8:16:32:64-S128"
target triple = "x86_64-pc-linux-gnu"

%class.ShenandoahRefProcThreadLocal = type { ptr, ptr, [5 x i64], [5 x i64], [5 x i64] }
%class.ShenandoahReferenceProcessor = type { %class.ReferenceDiscoverer, ptr, ptr, ptr, ptr, i32, %class.ReferenceProcessorStats }
%class.ReferenceDiscoverer = type { ptr }
%class.ReferenceProcessorStats = type { i64, i64, i64, i64 }

@_ZTV28ShenandoahReferenceProcessor = hidden unnamed_addr constant { [3 x ptr] } { [3 x ptr] [ptr null, ptr null, ptr @_ZN28ShenandoahReferenceProcessor18discover_referenceEP7oopDesc13ReferenceType] }, align 8
@_ZTV19ReferenceDiscoverer = linkonce_odr hidden unnamed_addr constant { [3 x ptr] } { [3 x ptr] [ptr null, ptr null, ptr @__cxa_pure_virtual] }, comdat, align 8

; Function Attrs: mustprogress nounwind uwtable
define hidden void @_ZN28ShenandoahRefProcThreadLocal5resetEv(ptr noundef nonnull align 8 dereferenceable(136) %0) #1 align 2 {
  %2 = alloca ptr, align 8
  %3 = alloca i32, align 4
  store ptr %0, ptr %2, align 8
  %4 = load ptr, ptr %2, align 8
  %5 = getelementptr inbounds %class.ShenandoahRefProcThreadLocal, ptr %4, i32 0, i32 0
  store ptr null, ptr %5, align 8
  %6 = getelementptr inbounds %class.ShenandoahRefProcThreadLocal, ptr %4, i32 0, i32 1
  store ptr null, ptr %6, align 8
  store i32 0, ptr %3, align 4
  br label %7

7:                                                ; preds = %24, %1
  %8 = load i32, ptr %3, align 4
  %9 = zext i32 %8 to i64
  %10 = icmp ult i64 %9, 5
  br i1 %10, label %11, label %27

11:                                               ; preds = %7
  %12 = getelementptr inbounds %class.ShenandoahRefProcThreadLocal, ptr %4, i32 0, i32 2
  %13 = load i32, ptr %3, align 4
  %14 = zext i32 %13 to i64
  %15 = getelementptr inbounds [5 x i64], ptr %12, i64 0, i64 %14
  store i64 0, ptr %15, align 8
  %16 = getelementptr inbounds %class.ShenandoahRefProcThreadLocal, ptr %4, i32 0, i32 3
  %17 = load i32, ptr %3, align 4
  %18 = zext i32 %17 to i64
  %19 = getelementptr inbounds [5 x i64], ptr %16, i64 0, i64 %18
  store i64 0, ptr %19, align 8
  %20 = getelementptr inbounds %class.ShenandoahRefProcThreadLocal, ptr %4, i32 0, i32 4
  %21 = load i32, ptr %3, align 4
  %22 = zext i32 %21 to i64
  %23 = getelementptr inbounds [5 x i64], ptr %20, i64 0, i64 %22
  store i64 0, ptr %23, align 8
  br label %24

24:                                               ; preds = %11
  %25 = load i32, ptr %3, align 4
  %26 = add i32 %25, 1
  store i32 %26, ptr %3, align 4
  br label %7, !llvm.loop !6

27:                                               ; preds = %7
  ret void
}

; Function Attrs: mustprogress nounwind uwtable
define linkonce_odr hidden void @_ZN23ReferenceProcessorStatsC2Ev(ptr noundef nonnull align 8 dereferenceable(32) %0) unnamed_addr #1 comdat align 2 {
  %2 = alloca ptr, align 8
  store ptr %0, ptr %2, align 8
  %3 = load ptr, ptr %2, align 8
  %4 = getelementptr inbounds %class.ReferenceProcessorStats, ptr %3, i32 0, i32 0
  store i64 0, ptr %4, align 8
  %5 = getelementptr inbounds %class.ReferenceProcessorStats, ptr %3, i32 0, i32 1
  store i64 0, ptr %5, align 8
  %6 = getelementptr inbounds %class.ReferenceProcessorStats, ptr %3, i32 0, i32 2
  store i64 0, ptr %6, align 8
  %7 = getelementptr inbounds %class.ReferenceProcessorStats, ptr %3, i32 0, i32 3
  store i64 0, ptr %7, align 8
  ret void
}

; Function Attrs: mustprogress nounwind uwtable
define linkonce_odr hidden void @_ZN19ReferenceDiscovererC2Ev(ptr noundef nonnull align 8 dereferenceable(8) %0) unnamed_addr #1 comdat align 2 {
  %2 = alloca ptr, align 8
  store ptr %0, ptr %2, align 8
  %3 = load ptr, ptr %2, align 8
  store ptr getelementptr inbounds inrange(-16, 8) ({ [3 x ptr] }, ptr @_ZTV19ReferenceDiscoverer, i32 0, i32 0, i32 2), ptr %3, align 8
  ret void
}

; Function Attrs: mustprogress nounwind uwtable
define hidden void @_ZN28ShenandoahReferenceProcessorC2Ej(ptr noundef nonnull align 8 dereferenceable(80) %0, i32 noundef %1) unnamed_addr #1 align 2 {
  %3 = alloca ptr, align 8
  %4 = alloca i32, align 4
  %5 = alloca i64, align 8
  store ptr %0, ptr %3, align 8
  store i32 %1, ptr %4, align 4
  %6 = load ptr, ptr %3, align 8
  call void @_ZN19ReferenceDiscovererC2Ev(ptr noundef nonnull align 8 dereferenceable(8) %6) #5
  store ptr getelementptr inbounds inrange(-16, 8) ({ [3 x ptr] }, ptr @_ZTV28ShenandoahReferenceProcessor, i32 0, i32 0, i32 2), ptr %6, align 8
  %7 = getelementptr inbounds %class.ShenandoahReferenceProcessor, ptr %6, i32 0, i32 1
  store ptr null, ptr %7, align 8
  %8 = getelementptr inbounds %class.ShenandoahReferenceProcessor, ptr %6, i32 0, i32 2
  %9 = load i32, ptr %4, align 4
  %10 = zext i32 %9 to i64
  %11 = mul i64 %10, 136
  %12 = call noundef ptr @_Z12AllocateHeapm8MEMFLAGSN17AllocFailStrategy13AllocFailEnumE(i64 noundef %11, i8 noundef zeroext 5, i32 noundef 0)
  store ptr %12, ptr %8, align 8
  %13 = getelementptr inbounds %class.ShenandoahReferenceProcessor, ptr %6, i32 0, i32 3
  store ptr null, ptr %13, align 8
  %14 = getelementptr inbounds %class.ShenandoahReferenceProcessor, ptr %6, i32 0, i32 4
  %15 = getelementptr inbounds %class.ShenandoahReferenceProcessor, ptr %6, i32 0, i32 3
  store ptr %15, ptr %14, align 8
  %16 = getelementptr inbounds %class.ShenandoahReferenceProcessor, ptr %6, i32 0, i32 5
  store volatile i32 0, ptr %16, align 8
  %17 = getelementptr inbounds %class.ShenandoahReferenceProcessor, ptr %6, i32 0, i32 6
  call void @_ZN23ReferenceProcessorStatsC2Ev(ptr noundef nonnull align 8 dereferenceable(32) %17)
  store i64 0, ptr %5, align 8
  br label %18

18:                                               ; preds = %28, %2
  %19 = load i64, ptr %5, align 8
  %20 = load i32, ptr %4, align 4
  %21 = zext i32 %20 to i64
  %22 = icmp ult i64 %19, %21
  br i1 %22, label %23, label %31

23:                                               ; preds = %18
  %24 = getelementptr inbounds %class.ShenandoahReferenceProcessor, ptr %6, i32 0, i32 2
  %25 = load ptr, ptr %24, align 8
  %26 = load i64, ptr %5, align 8
  %27 = getelementptr inbounds %class.ShenandoahRefProcThreadLocal, ptr %25, i64 %26
  call void @_ZN28ShenandoahRefProcThreadLocal5resetEv(ptr noundef nonnull align 8 dereferenceable(136) %27)
  br label %28

28:                                               ; preds = %23
  %29 = load i64, ptr %5, align 8
  %30 = add i64 %29, 1
  store i64 %30, ptr %5, align 8
  br label %18, !llvm.loop !8

31:                                               ; preds = %18
  ret void
}