; Function Attrs: mustprogress nounwind uwtable
define hidden void @_ZN28ShenandoahReferenceProcessorC2Ej(ptr noundef nonnull align 8 dereferenceable(80) %0, i32 noundef %1) unnamed_addr #5 align 2 {
  store ptr getelementptr inbounds inrange(-16, 8) (i8, ptr @_ZTV28ShenandoahReferenceProcessor, i64 16), ptr %0, align 8
  %3 = getelementptr inbounds i8, ptr %0, i64 8
  store ptr null, ptr %3, align 8
  %4 = getelementptr inbounds i8, ptr %0, i64 16
  %5 = zext i32 %1 to i64
  %6 = mul nuw nsw i64 %5, 136
  %7 = tail call noundef ptr @_Z12AllocateHeapm8MEMFLAGSN17AllocFailStrategy13AllocFailEnumE(i64 noundef %6, i8 noundef zeroext 5, i32 noundef 0) #14
  store ptr %7, ptr %4, align 8
  %8 = getelementptr inbounds i8, ptr %0, i64 24
  store ptr null, ptr %8, align 8
  %9 = getelementptr inbounds i8, ptr %0, i64 32
  store ptr %8, ptr %9, align 8
  %10 = getelementptr inbounds i8, ptr %0, i64 40
  store volatile i32 0, ptr %10, align 8
  %11 = getelementptr inbounds i8, ptr %0, i64 48
  tail call void @llvm.memset.p0.i64(ptr noundef nonnull align 8 dereferenceable(32) %11, i8 0, i64 32, i1 false)
  %.not = icmp eq i32 %1, 0
  br i1 %.not, label %._crit_edge, label %.lr.ph

.lr.ph:                                           ; preds = %2, %.lr.ph
  %.05 = phi i64 [ %14, %.lr.ph ], [ 0, %2 ]
  %12 = load ptr, ptr %4, align 8
  %13 = getelementptr inbounds %class.ShenandoahRefProcThreadLocal, ptr %12, i64 %.05
  tail call void @llvm.memset.p0.i64(ptr noundef nonnull align 8 dereferenceable(136) %13, i8 0, i64 136, i1 false)
  %14 = add nuw nsw i64 %.05, 1
  %exitcond.not = icmp eq i64 %14, %5
  br i1 %exitcond.not, label %._crit_edge, label %.lr.ph, !llvm.loop !6

._crit_edge:                                      ; preds = %.lr.ph, %2
  ret void
}